; ModuleID = 'bench/openjdk/original/HotspotThread.ll'
source_filename = "bench/openjdk/original/HotspotThread.ll"
target datalayout = "e-m:e-p270:32:32-p271:32:32-p272:64:64-i64:64-i128:128-f80:128-n8:16:32:64-S128"
target triple = "x86_64-pc-linux-gnu"

@jmm_interface = external local_unnamed_addr global ptr, align 8

; Function Attrs: nounwind uwtable
define i32 @Java_sun_management_HotspotThread_getInternalThreadCount(ptr noundef %0, ptr nocapture noundef readnone %1) local_unnamed_addr #0 {
  %3 = load ptr, ptr @jmm_interface, align 8
  %4 = getelementptr inbounds i8, ptr %3, i64 104
  %5 = load ptr, ptr %4, align 8
  %6 = tail call i64 %5(ptr noundef %0, ptr noundef null, i32 noundef 109) #1
  %7 = trunc i64 %6 to i32
  ret i32 %7
}

; Function Attrs: nounwind uwtable
define i32 @Java_sun_management_HotspotThread_getInternalThreadTimes0(ptr noundef %0, ptr nocapture noundef readnone %1, ptr noundef %2, ptr noundef %3) local_unnamed_addr #0 {
  %5 = load ptr, ptr @jmm_interface, align 8
  %6 = getelementptr inbounds i8, ptr %5, i64 168
  %7 = load ptr, ptr %6, align 8
  %8 = tail call i32 %7(ptr noundef %0, ptr noundef %2, ptr noundef %3) #1
  ret i32 %8
}


!llvm.module.flags = !{!0, !1, !2, !3, !4, !5}

!0 = !{i32 7, !"Dwarf Version", i32 5}
!1 = !{i32 2, !"Debug Info Version", i32 3}
!2 = !{i32 1, !"wchar_size", i32 4}
!3 = !{i32 8, !"PIC Level", i32 2}
!4 = !{i32 7, !"uwtable", i32 2}
!5 = !{i32 7, !"frame-pointer", i32 2}
